(dp0
I1878094816
(dp1
I1
((dp2
(I2
I-4
tp3
(I100
I1
tp4
s(I1
I-5
tp5
(I100
I1
tp6
s(I-1
I2
tp7
(I100
I-1
tp8
s(I-8
I1
tp9
(I100
I-1
tp10
s(I1
I-1
tp11
(I100
I1
tp12
s(I-9
I1
tp13
(I100
I-1
tp14
s(I-2
I1
tp15
(I100
I-1
tp16
s(I-5
I1
tp17
(I100
I-1
tp18
s(I1
I-6
tp19
(I100
I1
tp20
s(I1
I-2
tp21
(I100
I1
tp22
s(I1
I-17
tp23
(I100
I1
tp24
s(I3
I-4
tp25
(I100
I1
tp26
s(I2
I-3
tp27
(I100
I1
tp28
s(I1
I-3
tp29
(I100
I1
tp30
s(I2
I-1
tp31
(I100
I1
tp32
s(I-6
I1
tp33
(I100
I-1
tp34
s(I-2
I2
tp35
(I100
I-1
tp36
s(I-1
I1
tp37
(I100
I-1
tp38
s(I-3
I1
tp39
(I100
I-1
tp40
s(I1
I-4
tp41
(I100
I1
tp42
s(I-13
I1
tp43
(I100
I-1
tp44
s(I2
I-5
tp45
(I100
I1
tp46
s(I1
I-8
tp47
(I100
I1
tp48
s(I2
I-7
tp49
(I100
I1
tp50
s(I1
I-9
tp51
(I100
I1
tp52
s(I-1
I3
tp53
(I100
I-1
tp54
s(I-3
I2
tp55
(I100
I-1
tp56
s(I-17
I1
tp57
(I100
I-1
tp58
s(I1
I-13
tp59
(I100
I1
tp60
s(I-4
I1
tp61
(I100
I-1
tp62
s(I-7
I1
tp63
(I100
I-1
tp64
s(lp65
I-6
aI1
aI-1
aI1
aI-2
aI1
aI-1
aI2
aI-3
aI1
aI-6
aI1
aI-17
aI1
aI-2
aI2
aI-4
aI1
aI-8
aI1
aI-13
aI1
aI-8
aI1
aI-2
aI1
aI-2
aI1
aI-2
aI2
aI-7
aI1
aI-1
aI3
aI-4
aI1
aI-2
aI1
aI-3
aI1
aI-4
aI1
aI-1
aI2
aI-7
aI1
aI-1
aI2
aI-5
aI1
aI-9
aI1
aI-2
aI2
aI-3
aI2
aI-1
aI1
aI-5
aI1
aI-1
aI1
aI-6
aI1
aI-6
aI1
aI-3
aI1
aI-2
aI1
aI-3
aI1
aI-6
aI1
aI-8
aI1
aI-1
aI1
aI-4
aI1
aI-6
atp66
sI2
((dp67
(I4
I-3
tp68
(I100
I1
tp69
s(I1
I-10
tp70
(I100
I1
tp71
s(I2
I-4
tp72
(I100
I1
tp73
s(I2
I-3
tp74
(I100
I1
tp75
s(I1
I-5
tp76
(I100
I1
tp77
s(I1
I-14
tp78
(I100
I1
tp79
s(I-4
I2
tp80
(I100
I-1
tp81
s(I1
I-2
tp82
(I100
I1
tp83
s(I-2
I1
tp84
(I100
I-1
tp85
s(I-5
I1
tp86
(I100
I-1
tp87
s(I1
I-1
tp88
(I100
I1
tp89
s(I2
I-10
tp90
(I100
I1
tp91
s(I-3
I2
tp92
(I100
I-1
tp93
s(I-9
I1
tp94
(I100
I-1
tp95
s(I1
I-3
tp96
(I100
I1
tp97
s(I2
I-1
tp98
(I100
I1
tp99
s(I1
I-7
tp100
(I100
I1
tp101
s(I-1
I2
tp102
(I100
I-1
tp103
s(I-1
I1
tp104
(I100
I-1
tp105
s(I-3
I1
tp106
(I100
I-1
tp107
s(I1
I-4
tp108
(I100
I1
tp109
s(I-10
I1
tp110
(I100
I-1
tp111
s(I2
I-5
tp112
(I100
I1
tp113
s(I3
I-5
tp114
(I100
I1
tp115
s(I-4
I4
tp116
(I100
I-1
tp117
s(I1
I-9
tp118
(I100
I1
tp119
s(I-1
I3
tp120
(I100
I-1
tp121
s(I3
I-1
tp122
(I100
I1
tp123
s(I-2
I3
tp124
(I100
I-1
tp125
s(I-4
I1
tp126
(I100
I-1
tp127
s(I-7
I1
tp128
(I100
I-1
tp129
s(I-5
I2
tp130
(I100
I-1
tp131
s(I-14
I1
tp132
(I100
I-1
tp133
s(lp134
I1
aI-3
aI1
aI-2
aI1
aI-1
aI1
aI-7
aI1
aI-4
aI2
aI-5
aI1
aI-5
aI1
aI-4
aI1
aI-4
aI4
aI-3
aI1
aI-2
aI3
aI-1
aI1
aI-3
aI1
aI-9
aI1
aI-1
aI1
aI-10
aI1
aI-1
aI1
aI-2
aI1
aI-1
aI3
aI-1
aI3
aI-5
aI1
aI-5
aI2
aI-10
aI1
aI-14
aI1
aI-3
aI2
aI-1
aI2
aI-1
aI1
aI-1
aI1
aI-3
aI1
aI-3
aI2
aI-3
aI2
aI-4
aI1
aI-2
aI1
aI-2
aI1
aI-2
aI1
aI-1
aI1
aI-9
aI1
aI-3
aI1
aI-10
aI1
aI-5
aI2
aI-14
atp135
sI3
((dp136
(I2
I-1
tp137
(I100
I1
tp138
s(I-10
I2
tp139
(I100
I-1
tp140
s(I1
I-10
tp141
(I100
I1
tp142
s(I2
I-4
tp143
(I100
I1
tp144
s(I2
I-3
tp145
(I100
I1
tp146
s(I1
I-5
tp147
(I100
I1
tp148
s(I-4
I2
tp149
(I100
I-1
tp150
s(I-2
I5
tp151
(I100
I-1
tp152
s(I-8
I1
tp153
(I100
I-1
tp154
s(I1
I-1
tp155
(I100
I1
tp156
s(I-1
I1
tp157
(I100
I-1
tp158
s(I-5
I1
tp159
(I100
I-1
tp160
s(I1
I-6
tp161
(I100
I1
tp162
s(I1
I-2
tp163
(I100
I1
tp164
s(I-3
I2
tp165
(I100
I-1
tp166
s(I-9
I1
tp167
(I100
I-1
tp168
s(I1
I-3
tp169
(I100
I1
tp170
s(I-7
I2
tp171
(I100
I-1
tp172
s(I2
I-2
tp173
(I100
I1
tp174
s(I1
I-7
tp175
(I100
I1
tp176
s(I-6
I1
tp177
(I100
I-1
tp178
s(I-2
I2
tp179
(I100
I-1
tp180
s(I-2
I1
tp181
(I100
I-1
tp182
s(I-3
I1
tp183
(I100
I-1
tp184
s(I1
I-4
tp185
(I100
I1
tp186
s(I5
I-10
tp187
(I100
I1
tp188
s(I-10
I1
tp189
(I100
I-1
tp190
s(I1
I-8
tp191
(I100
I1
tp192
s(I1
I-9
tp193
(I100
I1
tp194
s(I-4
I1
tp195
(I100
I-1
tp196
s(lp197
I1
aI-6
aI1
aI-3
aI1
aI-10
aI2
aI-3
aI2
aI-4
aI1
aI-4
aI1
aI-2
aI2
aI-2
aI1
aI-6
aI1
aI-1
aI1
aI-6
aI1
aI-5
aI1
aI-1
aI1
aI-3
aI1
aI-3
aI1
aI-2
aI1
aI-8
aI1
aI-1
aI1
aI-2
aI1
aI-2
aI2
aI-3
aI1
aI-2
aI1
aI-1
aI1
aI-5
aI1
aI-2
aI1
aI-5
aI1
aI-7
aI2
aI-2
aI1
aI-9
aI1
aI-2
aI2
aI-4
aI2
aI-2
aI5
aI-10
aI1
aI-4
aI1
aI-1
aI1
aI-2
aI1
aI-2
aI1
aI-2
aI1
aI-3
aI1
aI-2
aI1
aI-6
aI1
aI-4
aI1
aI-3
aI2
aI-1
aI1
aI-12
atp198
sI4
((dp199
(I1
I-10
tp200
(I100
I1
tp201
s(I2
I-4
tp202
(I100
I1
tp203
s(I-11
I1
tp204
(I100
I-1
tp205
s(I2
I-11
tp206
(I100
I1
tp207
s(I1
I-5
tp208
(I100
I1
tp209
s(I3
I-2
tp210
(I100
I1
tp211
s(I2
I-1
tp212
(I100
I1
tp213
s(I-3
I3
tp214
(I100
I-1
tp215
s(I1
I-2
tp216
(I100
I1
tp217
s(I-10
I3
tp218
(I100
I-1
tp219
s(I1
I-11
tp220
(I100
I1
tp221
s(I2
I-3
tp222
(I100
I1
tp223
s(I-5
I1
tp224
(I100
I-1
tp225
s(I1
I-6
tp226
(I100
I1
tp227
s(I1
I-1
tp228
(I100
I1
tp229
s(I-12
I1
tp230
(I100
I-1
tp231
s(I-4
I3
tp232
(I100
I-1
tp233
s(I-2
I1
tp234
(I100
I-1
tp235
s(I-3
I2
tp236
(I100
I-1
tp237
s(I-8
I2
tp238
(I100
I-1
tp239
s(I-9
I1
tp240
(I100
I-1
tp241
s(I1
I-3
tp242
(I100
I1
tp243
s(I-1
I2
tp244
(I100
I-1
tp245
s(I1
I-7
tp246
(I100
I1
tp247
s(I2
I-2
tp248
(I100
I1
tp249
s(I3
I-12
tp250
(I100
I1
tp251
s(I-1
I1
tp252
(I100
I-1
tp253
s(I-3
I1
tp254
(I100
I-1
tp255
s(I4
I-9
tp256
(I100
I1
tp257
s(I1
I-4
tp258
(I100
I1
tp259
s(I1
I-8
tp260
(I100
I1
tp261
s(I1
I-9
tp262
(I100
I1
tp263
s(I-1
I3
tp264
(I100
I-1
tp265
s(I3
I-1
tp266
(I100
I1
tp267
s(I-6
I2
tp268
(I100
I-1
tp269
s(I-4
I1
tp270
(I100
I-1
tp271
s(I-7
I1
tp272
(I100
I-1
tp273
s(I-2
I4
tp274
(I100
I-1
tp275
s(I-5
I2
tp276
(I100
I-1
tp277
s(lp278
I-3
aI2
aI-1
aI1
aI-2
aI1
aI-7
aI1
aI-3
aI2
aI-11
aI1
aI-2
aI1
aI-1
aI2
aI-3
aI3
aI-1
aI1
aI-4
aI3
aI-2
aI1
aI-5
aI1
aI-3
aI1
aI-9
aI1
aI-2
aI1
aI-4
aI1
aI-7
aI1
aI-4
aI1
aI-1
aI1
aI-2
aI1
aI-1
aI1
aI-5
aI2
aI-2
aI1
aI-2
aI1
aI-1
aI1
aI-2
aI1
aI-11
aI1
aI-10
aI3
aI-12
aI1
aI-6
aI2
aI-4
aI1
aI-1
aI1
aI-8
aI2
aI-1
aI3
aI-2
aI4
aI-9
aI1
aI-3
aI1
aI-5
aI1
aI-5
aI1
aI-1
aI2
atp279
sI5
((dp280
(I4
I-3
tp281
(I100
I1
tp282
s(I1
I-10
tp283
(I100
I1
tp284
s(I1
I-5
tp285
(I100
I1
tp286
s(I-4
I2
tp287
(I100
I-1
tp288
s(I3
I-1
tp289
(I100
I1
tp290
s(I3
I-3
tp291
(I100
I1
tp292
s(I-8
I1
tp293
(I100
I-1
tp294
s(I1
I-2
tp295
(I100
I1
tp296
s(I2
I-3
tp297
(I100
I1
tp298
s(I-5
I1
tp299
(I100
I-1
tp300
s(I1
I-6
tp301
(I100
I1
tp302
s(I1
I-1
tp303
(I100
I1
tp304
s(I-4
I3
tp305
(I100
I-1
tp306
s(I-2
I1
tp307
(I100
I-1
tp308
s(I1
I-3
tp309
(I100
I1
tp310
s(I-1
I2
tp311
(I100
I-1
tp312
s(I1
I-7
tp313
(I100
I1
tp314
s(I-6
I1
tp315
(I100
I-1
tp316
s(I1
I-16
tp317
(I100
I1
tp318
s(I2
I-2
tp319
(I100
I1
tp320
s(I-1
I1
tp321
(I100
I-1
tp322
s(I-16
I1
tp323
(I100
I-1
tp324
s(I-3
I1
tp325
(I100
I-1
tp326
s(I1
I-4
tp327
(I100
I1
tp328
s(I-10
I1
tp329
(I100
I-1
tp330
s(I2
I-5
tp331
(I100
I1
tp332
s(I-3
I3
tp333
(I100
I-1
tp334
s(I1
I-8
tp335
(I100
I1
tp336
s(I-2
I3
tp337
(I100
I-1
tp338
s(I3
I-2
tp339
(I100
I1
tp340
s(I-4
I1
tp341
(I100
I-1
tp342
s(I-7
I1
tp343
(I100
I-1
tp344
s(I-3
I4
tp345
(I100
I-1
tp346
s(lp347
I-3
aI1
aI-2
aI1
aI-3
aI1
aI-3
aI4
aI-3
aI1
aI-2
aI1
aI-7
aI1
aI-1
aI1
aI-8
aI1
aI-4
aI3
aI-2
aI1
aI-4
aI2
aI-3
aI1
aI-4
aI1
aI-1
aI1
aI-4
aI1
aI-3
aI1
aI-2
aI1
aI-1
aI1
aI-1
aI1
aI-3
aI1
aI-1
aI1
aI-4
aI1
aI-1
aI2
aI-5
aI1
aI-3
aI3
aI-1
aI1
aI-1
aI1
aI-5
aI1
aI-2
aI1
aI-1
aI2
aI-2
aI3
aI-3
aI1
aI-1
aI1
aI-1
aI1
aI-5
aI1
aI-2
aI1
aI-6
aI1
aI-2
aI3
aI-2
aI1
aI-16
aI1
aI-2
aI1
aI-5
aI1
aI-2
aI1
aI-2
aI1
aI-2
aI1
aI-3
aI1
aI-10
aI1
aI-1
aI2
aI-8
atp348
sI6
((dp349
(I2
I-2
tp350
(I100
I1
tp351
s(I1
I-10
tp352
(I100
I1
tp353
s(I3
I-10
tp354
(I100
I1
tp355
s(I2
I-3
tp356
(I100
I1
tp357
s(I3
I-3
tp358
(I100
I1
tp359
s(I-1
I2
tp360
(I100
I-1
tp361
s(I-3
I3
tp362
(I100
I-1
tp363
s(I-8
I1
tp364
(I100
I-1
tp365
s(I1
I-1
tp366
(I100
I1
tp367
s(I1
I-5
tp368
(I100
I1
tp369
s(I-1
I1
tp370
(I100
I-1
tp371
s(I-5
I1
tp372
(I100
I-1
tp373
s(I1
I-6
tp374
(I100
I1
tp375
s(I1
I-2
tp376
(I100
I1
tp377
s(I-12
I1
tp378
(I100
I-1
tp379
s(I-3
I2
tp380
(I100
I-1
tp381
s(I-9
I1
tp382
(I100
I-1
tp383
s(I1
I-3
tp384
(I100
I1
tp385
s(I1
I-12
tp386
(I100
I1
tp387
s(I-2
I2
tp388
(I100
I-1
tp389
s(I2
I-1
tp390
(I100
I1
tp391
s(I-2
I1
tp392
(I100
I-1
tp393
s(I2
I-9
tp394
(I100
I1
tp395
s(I-3
I1
tp396
(I100
I-1
tp397
s(I1
I-4
tp398
(I100
I1
tp399
s(I-10
I1
tp400
(I100
I-1
tp401
s(I1
I-8
tp402
(I100
I1
tp403
s(I-2
I3
tp404
(I100
I-1
tp405
s(I-6
I2
tp406
(I100
I-1
tp407
s(I-4
I1
tp408
(I100
I-1
tp409
s(I-5
I2
tp410
(I100
I-1
tp411
s(lp412
I-12
aI1
aI-2
aI1
aI-2
aI1
aI-1
aI2
aI-2
aI2
aI-2
aI1
aI-1
aI1
aI-2
aI3
aI-3
aI2
aI-9
aI1
aI-2
aI1
aI-1
aI2
aI-3
aI1
aI-4
aI1
aI-3
aI1
aI-2
aI2
aI-3
aI2
aI-1
aI1
aI-2
aI1
aI-2
aI1
aI-1
aI1
aI-2
aI1
aI-12
aI1
aI-5
aI2
aI-2
aI1
aI-8
aI1
aI-4
aI1
aI-3
aI1
aI-2
aI1
aI-2
aI1
aI-5
aI1
aI-6
aI2
aI-1
aI2
aI-2
aI1
aI-1
aI1
aI-4
aI1
aI-2
aI1
aI-4
aI1
aI-4
aI1
aI-4
aI1
aI-5
aI1
aI-10
aI1
aI-2
aI1
aI-3
aI3
aI-10
aI1
aI-4
aI1
aI-1
atp413
sI7
((dp414
(I2
I-4
tp415
(I100
I1
tp416
s(I-11
I1
tp417
(I100
I-1
tp418
s(I2
I-11
tp419
(I100
I1
tp420
s(I1
I-5
tp421
(I100
I1
tp422
s(I-4
I2
tp423
(I100
I-1
tp424
s(I2
I-7
tp425
(I100
I1
tp426
s(I-3
I3
tp427
(I100
I-1
tp428
s(I-8
I1
tp429
(I100
I-1
tp430
s(I1
I-2
tp431
(I100
I1
tp432
s(I1
I-11
tp433
(I100
I1
tp434
s(I-2
I1
tp435
(I100
I-1
tp436
s(I-5
I1
tp437
(I100
I-1
tp438
s(I1
I-6
tp439
(I100
I1
tp440
s(I1
I-1
tp441
(I100
I1
tp442
s(I5
I-6
tp443
(I100
I1
tp444
s(I-9
I1
tp445
(I100
I-1
tp446
s(I1
I-3
tp447
(I100
I1
tp448
s(I-1
I2
tp449
(I100
I-1
tp450
s(I1
I-7
tp451
(I100
I1
tp452
s(I-6
I1
tp453
(I100
I-1
tp454
s(I2
I-1
tp455
(I100
I1
tp456
s(I-1
I1
tp457
(I100
I-1
tp458
s(I-3
I1
tp459
(I100
I-1
tp460
s(I-6
I5
tp461
(I100
I-1
tp462
s(I1
I-4
tp463
(I100
I1
tp464
s(I1
I-8
tp465
(I100
I1
tp466
s(I1
I-9
tp467
(I100
I1
tp468
s(I-2
I3
tp469
(I100
I-1
tp470
s(I-11
I2
tp471
(I100
I-1
tp472
s(I3
I-1
tp473
(I100
I1
tp474
s(I-6
I2
tp475
(I100
I-1
tp476
s(I-4
I1
tp477
(I100
I-1
tp478
s(I-7
I1
tp479
(I100
I-1
tp480
s(I3
I-6
tp481
(I100
I1
tp482
s(lp483
I-1
aI1
aI-2
aI1
aI-3
aI1
aI-1
aI1
aI-8
aI1
aI-1
aI1
aI-1
aI1
aI-3
aI1
aI-11
aI2
aI-1
aI1
aI-4
aI2
aI-11
aI1
aI-1
aI1
aI-3
aI1
aI-5
aI1
aI-1
aI1
aI-6
aI5
aI-6
aI1
aI-1
aI1
aI-6
aI1
aI-3
aI1
aI-1
aI2
aI-7
aI1
aI-2
aI1
aI-1
aI1
aI-8
aI1
aI-5
aI1
aI-2
aI3
aI-6
aI1
aI-9
aI1
aI-3
aI1
aI-3
aI1
aI-5
aI1
aI-8
aI1
aI-6
aI2
aI-4
aI1
aI-3
aI3
aI-1
aI1
aI-7
aI1
aI-6
aI1
aI-6
aI1
aI-2
atp484
sI8
((dp485
(I-2
I2
tp486
(I100
I-1
tp487
s(I-2
I1
tp488
(I100
I-1
tp489
s(I3
I-3
tp490
(I100
I1
tp491
s(I-9
I2
tp492
(I100
I-1
tp493
s(I-4
I2
tp494
(I100
I-1
tp495
s(I2
I-2
tp496
(I100
I1
tp497
s(I-3
I3
tp498
(I100
I-1
tp499
s(I-8
I1
tp500
(I100
I-1
tp501
s(I1
I-2
tp502
(I100
I1
tp503
s(I1
I-5
tp504
(I100
I1
tp505
s(I2
I-3
tp506
(I100
I1
tp507
s(I-5
I1
tp508
(I100
I-1
tp509
s(I1
I-6
tp510
(I100
I1
tp511
s(I1
I-1
tp512
(I100
I1
tp513
s(I-12
I1
tp514
(I100
I-1
tp515
s(I-4
I3
tp516
(I100
I-1
tp517
s(I3
I-4
tp518
(I100
I1
tp519
s(I-9
I1
tp520
(I100
I-1
tp521
s(I1
I-3
tp522
(I100
I1
tp523
s(I2
I-1
tp524
(I100
I1
tp525
s(I1
I-7
tp526
(I100
I1
tp527
s(I-6
I1
tp528
(I100
I-1
tp529
s(I-12
I2
tp530
(I100
I-1
tp531
s(I-1
I2
tp532
(I100
I-1
tp533
s(I-1
I1
tp534
(I100
I-1
tp535
s(I2
I-9
tp536
(I100
I1
tp537
s(I-3
I1
tp538
(I100
I-1
tp539
s(I1
I-4
tp540
(I100
I1
tp541
s(I2
I-5
tp542
(I100
I1
tp543
s(I-5
I2
tp544
(I100
I-1
tp545
s(I1
I-9
tp546
(I100
I1
tp547
s(I-1
I3
tp548
(I100
I-1
tp549
s(I2
I-12
tp550
(I100
I1
tp551
s(I3
I-1
tp552
(I100
I1
tp553
s(I-6
I2
tp554
(I100
I-1
tp555
s(I-4
I1
tp556
(I100
I-1
tp557
s(I-7
I1
tp558
(I100
I-1
tp559
s(I3
I-6
tp560
(I100
I1
tp561
s(lp562
I-8
aI1
aI-5
aI1
aI-5
aI2
aI-1
aI1
aI-3
aI1
aI-1
aI1
aI-1
aI1
aI-4
aI2
aI-2
aI2
aI-2
aI2
aI-12
aI1
aI-7
aI1
aI-4
aI1
aI-1
aI1
aI-2
aI2
aI-1
aI1
aI-1
aI1
aI-1
aI2
aI-12
aI2
aI-2
aI1
aI-1
aI1
aI-9
aI2
aI-1
aI3
aI-6
aI1
aI-2
aI2
aI-9
aI1
aI-1
aI1
aI-5
aI2
aI-1
aI3
aI-4
aI1
aI-3
aI1
aI-1
aI1
aI-1
aI2
aI-3
aI1
aI-6
aI2
aI-5
aI1
aI-9
aI2
aI-3
aI1
aI-3
aI1
aI-4
aI3
aI-3
aI3
aI-1
aI2
aI-3
aI1
aI-2
aI1
atp563
ss.